target datalayout = "e-m:e-p270:32:32-p271:32:32-p272:64:64-i64:64-i128:128-f80:128-n8:16:32:64-S128"
target triple = "x86_64-pc-linux-gnu"

@sentinel_script_retry_delay = internal global i64 30000, align 8
@sentinel_script_max_runtime = internal global i64 60000, align 8
@sentinel_default_down_after = internal global i64 30000, align 8
@sentinel_default_failover_timeout = internal global i64 180000, align 8
@sentinel_ping_period = internal global i64 1000, align 8
@sentinel_info_period = internal global i64 10000, align 8
@sentinel_publish_period = internal global i64 2000, align 8
@sentinel_ask_period = internal global i64 1000, align 8
@sentinel_tilt_trigger = internal global i64 2000, align 8
@sentinel_tilt_period = internal global i64 30000, align 8
@sentinel_slave_reconf_timeout = internal global i64 10000, align 8
@sentinel_min_link_reconnect_period = internal global i64 15000, align 8
@sentinel_election_timeout = internal global i64 10000, align 8
@.str.288 = private unnamed_addr constant [12 x i8] c"INFO-PERIOD\00", align 1
@.str.289 = private unnamed_addr constant [12 x i8] c"PING-PERIOD\00", align 1
@.str.290 = private unnamed_addr constant [11 x i8] c"ASK-PERIOD\00", align 1
@.str.291 = private unnamed_addr constant [15 x i8] c"PUBLISH-PERIOD\00", align 1
@.str.292 = private unnamed_addr constant [19 x i8] c"DEFAULT-DOWN-AFTER\00", align 1
@.str.293 = private unnamed_addr constant [25 x i8] c"DEFAULT-FAILOVER-TIMEOUT\00", align 1
@.str.294 = private unnamed_addr constant [13 x i8] c"TILT-TRIGGER\00", align 1
@.str.295 = private unnamed_addr constant [12 x i8] c"TILT-PERIOD\00", align 1
@.str.296 = private unnamed_addr constant [21 x i8] c"SLAVE-RECONF-TIMEOUT\00", align 1
@.str.297 = private unnamed_addr constant [26 x i8] c"MIN-LINK-RECONNECT-PERIOD\00", align 1
@.str.298 = private unnamed_addr constant [17 x i8] c"ELECTION-TIMEOUT\00", align 1
@.str.299 = private unnamed_addr constant [19 x i8] c"SCRIPT-MAX-RUNTIME\00", align 1
@.str.300 = private unnamed_addr constant [19 x i8] c"SCRIPT-RETRY-DELAY\00", align 1

; Function Attrs: nounwind uwtable
define dso_local void @addReplySentinelDebugInfo(ptr noundef %0) #0 {
  %2 = alloca ptr, align 8
  %3 = alloca ptr, align 8
  %4 = alloca i32, align 4
  store ptr %0, ptr %2, align 8, !tbaa !125
  call void @llvm.lifetime.start.p0(i64 8, ptr %3) #16
  call void @llvm.lifetime.start.p0(i64 4, ptr %4) #16
  store i32 0, ptr %4, align 4, !tbaa !82
  %5 = load ptr, ptr %2, align 8, !tbaa !125
  %6 = call ptr @addReplyDeferredLen(ptr noundef %5)
  store ptr %6, ptr %3, align 8, !tbaa !10
  %7 = load ptr, ptr %2, align 8, !tbaa !125
  call void @addReplyBulkCString(ptr noundef %7, ptr noundef @.str.288)
  %8 = load ptr, ptr %2, align 8, !tbaa !125
  %9 = load i64, ptr @sentinel_info_period, align 8, !tbaa !119
  call void @addReplyBulkLongLong(ptr noundef %8, i64 noundef %9)
  %10 = load i32, ptr %4, align 4, !tbaa !82
  %11 = add nsw i32 %10, 1
  store i32 %11, ptr %4, align 4, !tbaa !82
  %12 = load ptr, ptr %2, align 8, !tbaa !125
  call void @addReplyBulkCString(ptr noundef %12, ptr noundef @.str.289)
  %13 = load ptr, ptr %2, align 8, !tbaa !125
  %14 = load i64, ptr @sentinel_ping_period, align 8, !tbaa !119
  call void @addReplyBulkLongLong(ptr noundef %13, i64 noundef %14)
  %15 = load i32, ptr %4, align 4, !tbaa !82
  %16 = add nsw i32 %15, 1
  store i32 %16, ptr %4, align 4, !tbaa !82
  %17 = load ptr, ptr %2, align 8, !tbaa !125
  call void @addReplyBulkCString(ptr noundef %17, ptr noundef @.str.290)
  %18 = load ptr, ptr %2, align 8, !tbaa !125
  %19 = load i64, ptr @sentinel_ask_period, align 8, !tbaa !119
  call void @addReplyBulkLongLong(ptr noundef %18, i64 noundef %19)
  %20 = load i32, ptr %4, align 4, !tbaa !82
  %21 = add nsw i32 %20, 1
  store i32 %21, ptr %4, align 4, !tbaa !82
  %22 = load ptr, ptr %2, align 8, !tbaa !125
  call void @addReplyBulkCString(ptr noundef %22, ptr noundef @.str.291)
  %23 = load ptr, ptr %2, align 8, !tbaa !125
  %24 = load i64, ptr @sentinel_publish_period, align 8, !tbaa !119
  call void @addReplyBulkLongLong(ptr noundef %23, i64 noundef %24)
  %25 = load i32, ptr %4, align 4, !tbaa !82
  %26 = add nsw i32 %25, 1
  store i32 %26, ptr %4, align 4, !tbaa !82
  %27 = load ptr, ptr %2, align 8, !tbaa !125
  call void @addReplyBulkCString(ptr noundef %27, ptr noundef @.str.292)
  %28 = load ptr, ptr %2, align 8, !tbaa !125
  %29 = load i64, ptr @sentinel_default_down_after, align 8, !tbaa !119
  call void @addReplyBulkLongLong(ptr noundef %28, i64 noundef %29)
  %30 = load i32, ptr %4, align 4, !tbaa !82
  %31 = add nsw i32 %30, 1
  store i32 %31, ptr %4, align 4, !tbaa !82
  %32 = load ptr, ptr %2, align 8, !tbaa !125
  call void @addReplyBulkCString(ptr noundef %32, ptr noundef @.str.293)
  %33 = load ptr, ptr %2, align 8, !tbaa !125
  %34 = load i64, ptr @sentinel_default_failover_timeout, align 8, !tbaa !119
  call void @addReplyBulkLongLong(ptr noundef %33, i64 noundef %34)
  %35 = load i32, ptr %4, align 4, !tbaa !82
  %36 = add nsw i32 %35, 1
  store i32 %36, ptr %4, align 4, !tbaa !82
  %37 = load ptr, ptr %2, align 8, !tbaa !125
  call void @addReplyBulkCString(ptr noundef %37, ptr noundef @.str.294)
  %38 = load ptr, ptr %2, align 8, !tbaa !125
  %39 = load i64, ptr @sentinel_tilt_trigger, align 8, !tbaa !119
  call void @addReplyBulkLongLong(ptr noundef %38, i64 noundef %39)
  %40 = load i32, ptr %4, align 4, !tbaa !82
  %41 = add nsw i32 %40, 1
  store i32 %41, ptr %4, align 4, !tbaa !82
  %42 = load ptr, ptr %2, align 8, !tbaa !125
  call void @addReplyBulkCString(ptr noundef %42, ptr noundef @.str.295)
  %43 = load ptr, ptr %2, align 8, !tbaa !125
  %44 = load i64, ptr @sentinel_tilt_period, align 8, !tbaa !119
  call void @addReplyBulkLongLong(ptr noundef %43, i64 noundef %44)
  %45 = load i32, ptr %4, align 4, !tbaa !82
  %46 = add nsw i32 %45, 1
  store i32 %46, ptr %4, align 4, !tbaa !82
  %47 = load ptr, ptr %2, align 8, !tbaa !125
  call void @addReplyBulkCString(ptr noundef %47, ptr noundef @.str.296)
  %48 = load ptr, ptr %2, align 8, !tbaa !125
  %49 = load i64, ptr @sentinel_slave_reconf_timeout, align 8, !tbaa !119
  call void @addReplyBulkLongLong(ptr noundef %48, i64 noundef %49)
  %50 = load i32, ptr %4, align 4, !tbaa !82
  %51 = add nsw i32 %50, 1
  store i32 %51, ptr %4, align 4, !tbaa !82
  %52 = load ptr, ptr %2, align 8, !tbaa !125
  call void @addReplyBulkCString(ptr noundef %52, ptr noundef @.str.297)
  %53 = load ptr, ptr %2, align 8, !tbaa !125
  %54 = load i64, ptr @sentinel_min_link_reconnect_period, align 8, !tbaa !119
  call void @addReplyBulkLongLong(ptr noundef %53, i64 noundef %54)
  %55 = load i32, ptr %4, align 4, !tbaa !82
  %56 = add nsw i32 %55, 1
  store i32 %56, ptr %4, align 4, !tbaa !82
  %57 = load ptr, ptr %2, align 8, !tbaa !125
  call void @addReplyBulkCString(ptr noundef %57, ptr noundef @.str.298)
  %58 = load ptr, ptr %2, align 8, !tbaa !125
  %59 = load i64, ptr @sentinel_election_timeout, align 8, !tbaa !119
  call void @addReplyBulkLongLong(ptr noundef %58, i64 noundef %59)
  %60 = load i32, ptr %4, align 4, !tbaa !82
  %61 = add nsw i32 %60, 1
  store i32 %61, ptr %4, align 4, !tbaa !82
  %62 = load ptr, ptr %2, align 8, !tbaa !125
  call void @addReplyBulkCString(ptr noundef %62, ptr noundef @.str.299)
  %63 = load ptr, ptr %2, align 8, !tbaa !125
  %64 = load i64, ptr @sentinel_script_max_runtime, align 8, !tbaa !119
  call void @addReplyBulkLongLong(ptr noundef %63, i64 noundef %64)
  %65 = load i32, ptr %4, align 4, !tbaa !82
  %66 = add nsw i32 %65, 1
  store i32 %66, ptr %4, align 4, !tbaa !82
  %67 = load ptr, ptr %2, align 8, !tbaa !125
  call void @addReplyBulkCString(ptr noundef %67, ptr noundef @.str.300)
  %68 = load ptr, ptr %2, align 8, !tbaa !125
  %69 = load i64, ptr @sentinel_script_retry_delay, align 8, !tbaa !119
  call void @addReplyBulkLongLong(ptr noundef %68, i64 noundef %69)
  %70 = load i32, ptr %4, align 4, !tbaa !82
  %71 = add nsw i32 %70, 1
  store i32 %71, ptr %4, align 4, !tbaa !82
  %72 = load ptr, ptr %2, align 8, !tbaa !125
  %73 = load ptr, ptr %3, align 8, !tbaa !10
  %74 = load i32, ptr %4, align 4, !tbaa !82
  %75 = sext i32 %74 to i64
  call void @setDeferredMapLen(ptr noundef %72, ptr noundef %73, i64 noundef %75)
  call void @llvm.lifetime.end.p0(i64 4, ptr %4) #16
  call void @llvm.lifetime.end.p0(i64 8, ptr %3) #16
  ret void
}