; Function Attrs: nounwind uwtable
define dso_local void @addReplySentinelDebugInfo(ptr noundef %0) local_unnamed_addr #0 {
  %2 = tail call ptr @addReplyDeferredLen(ptr noundef %0) #30
  tail call void @addReplyBulkCString(ptr noundef %0, ptr noundef nonnull @.str.288) #30
  %3 = load i64, ptr @sentinel_info_period, align 8, !tbaa !107
  tail call void @addReplyBulkLongLong(ptr noundef %0, i64 noundef %3) #30
  tail call void @addReplyBulkCString(ptr noundef %0, ptr noundef nonnull @.str.289) #30
  %4 = load i64, ptr @sentinel_ping_period, align 8, !tbaa !107
  tail call void @addReplyBulkLongLong(ptr noundef %0, i64 noundef %4) #30
  tail call void @addReplyBulkCString(ptr noundef %0, ptr noundef nonnull @.str.290) #30
  %5 = load i64, ptr @sentinel_ask_period, align 8, !tbaa !107
  tail call void @addReplyBulkLongLong(ptr noundef %0, i64 noundef %5) #30
  tail call void @addReplyBulkCString(ptr noundef %0, ptr noundef nonnull @.str.291) #30
  %6 = load i64, ptr @sentinel_publish_period, align 8, !tbaa !107
  tail call void @addReplyBulkLongLong(ptr noundef %0, i64 noundef %6) #30
  tail call void @addReplyBulkCString(ptr noundef %0, ptr noundef nonnull @.str.292) #30
  %7 = load i64, ptr @sentinel_default_down_after, align 8, !tbaa !107
  tail call void @addReplyBulkLongLong(ptr noundef %0, i64 noundef %7) #30
  tail call void @addReplyBulkCString(ptr noundef %0, ptr noundef nonnull @.str.293) #30
  %8 = load i64, ptr @sentinel_default_failover_timeout, align 8, !tbaa !107
  tail call void @addReplyBulkLongLong(ptr noundef %0, i64 noundef %8) #30
  tail call void @addReplyBulkCString(ptr noundef %0, ptr noundef nonnull @.str.294) #30
  %9 = load i64, ptr @sentinel_tilt_trigger, align 8, !tbaa !107
  tail call void @addReplyBulkLongLong(ptr noundef %0, i64 noundef %9) #30
  tail call void @addReplyBulkCString(ptr noundef %0, ptr noundef nonnull @.str.295) #30
  %10 = load i64, ptr @sentinel_tilt_period, align 8, !tbaa !107
  tail call void @addReplyBulkLongLong(ptr noundef %0, i64 noundef %10) #30
  tail call void @addReplyBulkCString(ptr noundef %0, ptr noundef nonnull @.str.296) #30
  %11 = load i64, ptr @sentinel_slave_reconf_timeout, align 8, !tbaa !107
  tail call void @addReplyBulkLongLong(ptr noundef %0, i64 noundef %11) #30
  tail call void @addReplyBulkCString(ptr noundef %0, ptr noundef nonnull @.str.297) #30
  %12 = load i64, ptr @sentinel_min_link_reconnect_period, align 8, !tbaa !107
  tail call void @addReplyBulkLongLong(ptr noundef %0, i64 noundef %12) #30
  tail call void @addReplyBulkCString(ptr noundef %0, ptr noundef nonnull @.str.298) #30
  %13 = load i64, ptr @sentinel_election_timeout, align 8, !tbaa !107
  tail call void @addReplyBulkLongLong(ptr noundef %0, i64 noundef %13) #30
  tail call void @addReplyBulkCString(ptr noundef %0, ptr noundef nonnull @.str.299) #30
  %14 = load i64, ptr @sentinel_script_max_runtime, align 8, !tbaa !107
  tail call void @addReplyBulkLongLong(ptr noundef %0, i64 noundef %14) #30
  tail call void @addReplyBulkCString(ptr noundef %0, ptr noundef nonnull @.str.300) #30
  %15 = load i64, ptr @sentinel_script_retry_delay, align 8, !tbaa !107
  tail call void @addReplyBulkLongLong(ptr noundef %0, i64 noundef %15) #30
  tail call void @setDeferredMapLen(ptr noundef %0, ptr noundef %2, i64 noundef 13) #30
  ret void
}